; Function Attrs: nounwind uwtable
define internal ptr @builtin_pow(ptr readnone captures(none) %0, ptr noundef %1, i64 noundef %2, ptr noundef %3) #0 {
  %5 = alloca [3 x ptr], align 16
  call void @llvm.lifetime.start.p0(i64 24, ptr nonnull %5) #9
  %.not = icmp eq ptr %3, null
  br i1 %.not, label %8, label %.thread

.thread:                                          ; preds = %4
  %6 = getelementptr i8, ptr %3, i64 16
  %.val = load i64, ptr %6, align 8, !tbaa !45
  %7 = add i64 %.val, %2
  br label %12

8:                                                ; preds = %4
  %9 = and i64 %2, -2
  %10 = icmp eq i64 %9, 2
  %11 = icmp ne ptr %1, null
  %or.cond5 = and i1 %11, %10
  br i1 %or.cond5, label %.thread33, label %12

12:                                               ; preds = %8, %.thread
  %13 = phi i64 [ %7, %.thread ], [ %2, %8 ]
  %14 = call ptr @_PyArg_UnpackKeywords(ptr noundef %1, i64 noundef %2, ptr noundef null, ptr noundef %3, ptr noundef nonnull @builtin_pow._parser, i32 noundef 2, i32 noundef 3, i32 noundef 0, i32 noundef 0, ptr noundef nonnull %5) #9
  %.not29 = icmp eq ptr %14, null
  br i1 %.not29, label %25, label %.thread33

.thread33:                                        ; preds = %8, %12
  %15 = phi ptr [ %14, %12 ], [ %1, %8 ]
  %16 = phi i64 [ %13, %12 ], [ %2, %8 ]
  %17 = load ptr, ptr %15, align 8, !tbaa !39
  %18 = getelementptr i8, ptr %15, i64 8
  %19 = load ptr, ptr %18, align 8, !tbaa !39
  %.not30 = icmp eq i64 %16, 2
  br i1 %.not30, label %23, label %20

20:                                               ; preds = %.thread33
  %21 = getelementptr i8, ptr %15, i64 16
  %22 = load ptr, ptr %21, align 8, !tbaa !39
  br label %23

23:                                               ; preds = %.thread33, %20
  %.0 = phi ptr [ %22, %20 ], [ @_Py_NoneStruct, %.thread33 ]
  %24 = call ptr @PyNumber_Power(ptr noundef %17, ptr noundef %19, ptr noundef %.0) #9
  br label %25

25:                                               ; preds = %12, %23
  %.025 = phi ptr [ %24, %23 ], [ null, %12 ]
  call void @llvm.lifetime.end.p0(i64 24, ptr nonnull %5) #9
  ret ptr %.025
}